target datalayout = "e-m:e-p270:32:32-p271:32:32-p272:64:64-i64:64-i128:128-f80:128-n8:16:32:64-S128"
target triple = "x86_64-pc-linux-gnu"

@hf_mbim_ms_uicc_status = internal global i32 0, align 4
@hf_mbim_ms_uicc_response_length = internal global i32 0, align 4
@hf_mbim_ms_uicc_response_offset = internal global i32 0, align 4
@hf_mbim_ms_uicc_response = internal global i32 0, align 4

; Function Attrs: nounwind uwtable
define internal void @mbim_dissect_ms_apdu_info(ptr noundef %0, ptr noundef %1, i32 noundef %2) #0 {
  %4 = alloca ptr, align 8
  %5 = alloca ptr, align 8
  %6 = alloca i32, align 4
  %7 = alloca i32, align 4
  %8 = alloca i32, align 4
  %9 = alloca i32, align 4
  store ptr %0, ptr %4, align 8
  store ptr %1, ptr %5, align 8
  store i32 %2, ptr %6, align 4
  %10 = load i32, ptr %6, align 4
  store i32 %10, ptr %7, align 4
  %11 = load ptr, ptr %5, align 8
  %12 = load i32, ptr @hf_mbim_ms_uicc_status, align 4
  %13 = load ptr, ptr %4, align 8
  %14 = load i32, ptr %6, align 4
  %15 = call ptr @proto_tree_add_item(ptr noundef %11, i32 noundef %12, ptr noundef %13, i32 noundef %14, i32 noundef 4, i32 noundef -2147483648)
  %16 = load i32, ptr %6, align 4
  %17 = add i32 %16, 4
  store i32 %17, ptr %6, align 4
  %18 = load ptr, ptr %5, align 8
  %19 = load i32, ptr @hf_mbim_ms_uicc_response_length, align 4
  %20 = load ptr, ptr %4, align 8
  %21 = load i32, ptr %6, align 4
  %22 = call ptr @proto_tree_add_item_ret_uint(ptr noundef %18, i32 noundef %19, ptr noundef %20, i32 noundef %21, i32 noundef 4, i32 noundef -2147483648, ptr noundef %9)
  %23 = load i32, ptr %6, align 4
  %24 = add i32 %23, 4
  store i32 %24, ptr %6, align 4
  %25 = load ptr, ptr %5, align 8
  %26 = load i32, ptr @hf_mbim_ms_uicc_response_offset, align 4
  %27 = load ptr, ptr %4, align 8
  %28 = load i32, ptr %6, align 4
  %29 = call ptr @proto_tree_add_item_ret_uint(ptr noundef %25, i32 noundef %26, ptr noundef %27, i32 noundef %28, i32 noundef 4, i32 noundef -2147483648, ptr noundef %8)
  %30 = load i32, ptr %8, align 4
  %31 = icmp ne i32 %30, 0
  br i1 %31, label %32, label %44

32:                                               ; preds = %3
  %33 = load i32, ptr %9, align 4
  %34 = icmp ne i32 %33, 0
  br i1 %34, label %35, label %44

35:                                               ; preds = %32
  %36 = load ptr, ptr %5, align 8
  %37 = load i32, ptr @hf_mbim_ms_uicc_response, align 4
  %38 = load ptr, ptr %4, align 8
  %39 = load i32, ptr %7, align 4
  %40 = load i32, ptr %8, align 4
  %41 = add i32 %39, %40
  %42 = load i32, ptr %9, align 4
  %43 = call ptr @proto_tree_add_item(ptr noundef %36, i32 noundef %37, ptr noundef %38, i32 noundef %41, i32 noundef %42, i32 noundef 0)
  br label %44

44:                                               ; preds = %35, %32, %3
  ret void
}